target datalayout = "e-m:e-p270:32:32-p271:32:32-p272:64:64-i64:64-i128:128-f80:128-n8:16:32:64-S128"
target triple = "x86_64-pc-linux-gnu"

%struct.mbedtls_pk_context = type { ptr, ptr }
%struct.mbedtls_ecp_keypair = type { %struct.mbedtls_ecp_group, %struct.mbedtls_mpi, %struct.mbedtls_ecp_point }
%struct.mbedtls_ecp_group = type { i32, %struct.mbedtls_mpi, %struct.mbedtls_mpi, %struct.mbedtls_mpi, %struct.mbedtls_ecp_point, %struct.mbedtls_mpi, i64, i64, i32, ptr, ptr, ptr, ptr, ptr, i64 }
%struct.mbedtls_mpi = type { ptr, i16, i16 }
%struct.mbedtls_ecp_point = type { %struct.mbedtls_mpi, %struct.mbedtls_mpi, %struct.mbedtls_mpi }

; Function Attrs: inlinehint nounwind uwtable
define internal ptr @mbedtls_pk_ec_ro(ptr %0, ptr %1) #3 {
  %3 = alloca ptr, align 8
  %4 = alloca %struct.mbedtls_pk_context, align 8
  %5 = getelementptr inbounds nuw { ptr, ptr }, ptr %4, i32 0, i32 0
  store ptr %0, ptr %5, align 8
  %6 = getelementptr inbounds nuw { ptr, ptr }, ptr %4, i32 0, i32 1
  store ptr %1, ptr %6, align 8
  %7 = call i32 @mbedtls_pk_get_type(ptr noundef %4)
  switch i32 %7, label %11 [
    i32 2, label %8
    i32 3, label %8
    i32 4, label %8
  ]

8:                                                ; preds = %2, %2, %2
  %9 = getelementptr inbounds nuw %struct.mbedtls_pk_context, ptr %4, i32 0, i32 1
  %10 = load ptr, ptr %9, align 8, !tbaa !17
  store ptr %10, ptr %3, align 8
  br label %12

11:                                               ; preds = %2
  store ptr null, ptr %3, align 8
  br label %12

12:                                               ; preds = %11, %8
  %13 = load ptr, ptr %3, align 8
  ret ptr %13
}

; Function Attrs: nounwind uwtable
define internal i32 @pk_write_ec_param(ptr noundef %0, ptr noundef %1, i32 noundef %2) #0 {
  %4 = alloca i32, align 4
  %5 = alloca ptr, align 8
  %6 = alloca ptr, align 8
  %7 = alloca i32, align 4
  %8 = alloca i32, align 4
  %9 = alloca i64, align 8
  %10 = alloca ptr, align 8
  %11 = alloca i64, align 8
  %12 = alloca i32, align 4
  store ptr %0, ptr %5, align 8, !tbaa !3
  store ptr %1, ptr %6, align 8, !tbaa !9
  store i32 %2, ptr %7, align 4, !tbaa !13
  call void @llvm.lifetime.start.p0(i64 4, ptr %8) #7
  store i32 -110, ptr %8, align 4, !tbaa !13
  call void @llvm.lifetime.start.p0(i64 8, ptr %9) #7
  store i64 0, ptr %9, align 8, !tbaa !15
  call void @llvm.lifetime.start.p0(i64 8, ptr %10) #7
  call void @llvm.lifetime.start.p0(i64 8, ptr %11) #7
  %13 = load i32, ptr %7, align 4, !tbaa !13
  %14 = call i32 @mbedtls_oid_get_oid_by_ec_grp(i32 noundef %13, ptr noundef %10, ptr noundef %11)
  store i32 %14, ptr %8, align 4, !tbaa !13
  %15 = icmp ne i32 %14, 0
  br i1 %15, label %16, label %18

16:                                               ; preds = %3
  %17 = load i32, ptr %8, align 4, !tbaa !13
  store i32 %17, ptr %4, align 4
  store i32 1, ptr %12, align 4
  br label %38

18:                                               ; preds = %3
  br label %19

19:                                               ; preds = %18
  %20 = load ptr, ptr %5, align 8, !tbaa !3
  %21 = load ptr, ptr %6, align 8, !tbaa !9
  %22 = load ptr, ptr %10, align 8, !tbaa !9
  %23 = load i64, ptr %11, align 8, !tbaa !15
  %24 = call i32 @mbedtls_asn1_write_oid(ptr noundef %20, ptr noundef %21, ptr noundef %22, i64 noundef %23)
  store i32 %24, ptr %8, align 4, !tbaa !13
  %25 = icmp slt i32 %24, 0
  br i1 %25, label %26, label %28

26:                                               ; preds = %19
  %27 = load i32, ptr %8, align 4, !tbaa !13
  store i32 %27, ptr %4, align 4
  store i32 1, ptr %12, align 4
  br label %38

28:                                               ; preds = %19
  %29 = load i32, ptr %8, align 4, !tbaa !13
  %30 = sext i32 %29 to i64
  %31 = load i64, ptr %9, align 8, !tbaa !15
  %32 = add i64 %31, %30
  store i64 %32, ptr %9, align 8, !tbaa !15
  br label %33

33:                                               ; preds = %28
  br label %34

34:                                               ; preds = %33
  br label %35

35:                                               ; preds = %34
  %36 = load i64, ptr %9, align 8, !tbaa !15
  %37 = trunc i64 %36 to i32
  store i32 %37, ptr %4, align 4
  store i32 1, ptr %12, align 4
  br label %38

38:                                               ; preds = %35, %26, %16
  call void @llvm.lifetime.end.p0(i64 8, ptr %11) #7
  call void @llvm.lifetime.end.p0(i64 8, ptr %10) #7
  call void @llvm.lifetime.end.p0(i64 8, ptr %9) #7
  call void @llvm.lifetime.end.p0(i64 4, ptr %8) #7
  %39 = load i32, ptr %4, align 4
  ret i32 %39
}

; Function Attrs: inlinehint nounwind uwtable
define internal i32 @mbedtls_pk_get_ec_group_id(ptr noundef %0) #3 {
  %2 = alloca ptr, align 8
  %3 = alloca i32, align 4
  store ptr %0, ptr %2, align 8, !tbaa !11
  call void @llvm.lifetime.start.p0(i64 4, ptr %3) #7
  %4 = load ptr, ptr %2, align 8, !tbaa !11
  %5 = getelementptr inbounds nuw { ptr, ptr }, ptr %4, i32 0, i32 0
  %6 = load ptr, ptr %5, align 8
  %7 = getelementptr inbounds nuw { ptr, ptr }, ptr %4, i32 0, i32 1
  %8 = load ptr, ptr %7, align 8
  %9 = call ptr @mbedtls_pk_ec_ro(ptr %6, ptr %8)
  %10 = getelementptr inbounds nuw %struct.mbedtls_ecp_keypair, ptr %9, i32 0, i32 0
  %11 = getelementptr inbounds nuw %struct.mbedtls_ecp_group, ptr %10, i32 0, i32 0
  %12 = load i32, ptr %11, align 8, !tbaa !23
  store i32 %12, ptr %3, align 4, !tbaa !13
  %13 = load i32, ptr %3, align 4, !tbaa !13
  call void @llvm.lifetime.end.p0(i64 4, ptr %3) #7
  ret i32 %13
}

; Function Attrs: nounwind uwtable
define internal i32 @pk_get_type_ext(ptr noundef %0) #0 {
  %2 = alloca ptr, align 8
  %3 = alloca i32, align 4
  store ptr %0, ptr %2, align 8, !tbaa !11
  call void @llvm.lifetime.start.p0(i64 4, ptr %3) #7
  %4 = load ptr, ptr %2, align 8, !tbaa !11
  %5 = call i32 @mbedtls_pk_get_type(ptr noundef %4)
  store i32 %5, ptr %3, align 4, !tbaa !13
  %6 = load i32, ptr %3, align 4, !tbaa !13
  call void @llvm.lifetime.end.p0(i64 4, ptr %3) #7
  ret i32 %6
}

; Function Attrs: nounwind uwtable
define hidden i32 @mbedtls_pk_write_pubkey_der(ptr noundef %0, ptr noundef %1, i64 noundef %2) #0 {
  %4 = alloca i32, align 4
  %5 = alloca ptr, align 8
  %6 = alloca ptr, align 8
  %7 = alloca i64, align 8
  %8 = alloca i32, align 4
  %9 = alloca ptr, align 8
  %10 = alloca i32, align 4
  %11 = alloca i64, align 8
  %12 = alloca i64, align 8
  %13 = alloca i64, align 8
  %14 = alloca i32, align 4
  %15 = alloca ptr, align 8
  %16 = alloca i32, align 4
  %17 = alloca i32, align 4
  store ptr %0, ptr %5, align 8, !tbaa !11
  store ptr %1, ptr %6, align 8, !tbaa !9
  store i64 %2, ptr %7, align 8, !tbaa !15
  call void @llvm.lifetime.start.p0(i64 4, ptr %8) #7
  store i32 -110, ptr %8, align 4, !tbaa !13
  call void @llvm.lifetime.start.p0(i64 8, ptr %9) #7
  call void @llvm.lifetime.start.p0(i64 4, ptr %10) #7
  store i32 1, ptr %10, align 4, !tbaa !13
  call void @llvm.lifetime.start.p0(i64 8, ptr %11) #7
  store i64 0, ptr %11, align 8, !tbaa !15
  call void @llvm.lifetime.start.p0(i64 8, ptr %12) #7
  store i64 0, ptr %12, align 8, !tbaa !15
  call void @llvm.lifetime.start.p0(i64 8, ptr %13) #7
  store i64 0, ptr %13, align 8, !tbaa !15
  call void @llvm.lifetime.start.p0(i64 4, ptr %14) #7
  call void @llvm.lifetime.start.p0(i64 8, ptr %15) #7
  store ptr null, ptr %15, align 8, !tbaa !9
  %18 = load i64, ptr %7, align 8, !tbaa !15
  %19 = icmp eq i64 %18, 0
  br i1 %19, label %20, label %21

20:                                               ; preds = %3
  store i32 -108, ptr %4, align 4
  store i32 1, ptr %16, align 4
  br label %183

21:                                               ; preds = %3
  %22 = load ptr, ptr %6, align 8, !tbaa !9
  %23 = load i64, ptr %7, align 8, !tbaa !15
  %24 = getelementptr inbounds nuw i8, ptr %22, i64 %23
  store ptr %24, ptr %9, align 8, !tbaa !9
  br label %25

25:                                               ; preds = %21
  %26 = load ptr, ptr %6, align 8, !tbaa !9
  %27 = load ptr, ptr %5, align 8, !tbaa !11
  %28 = call i32 @mbedtls_pk_write_pubkey(ptr noundef %9, ptr noundef %26, ptr noundef %27)
  store i32 %28, ptr %8, align 4, !tbaa !13
  %29 = icmp slt i32 %28, 0
  br i1 %29, label %30, label %32

30:                                               ; preds = %25
  %31 = load i32, ptr %8, align 4, !tbaa !13
  store i32 %31, ptr %4, align 4
  store i32 1, ptr %16, align 4
  br label %183

32:                                               ; preds = %25
  %33 = load i32, ptr %8, align 4, !tbaa !13
  %34 = sext i32 %33 to i64
  %35 = load i64, ptr %11, align 8, !tbaa !15
  %36 = add i64 %35, %34
  store i64 %36, ptr %11, align 8, !tbaa !15
  br label %37

37:                                               ; preds = %32
  br label %38

38:                                               ; preds = %37
  br label %39

39:                                               ; preds = %38
  %40 = load ptr, ptr %9, align 8, !tbaa !9
  %41 = load ptr, ptr %6, align 8, !tbaa !9
  %42 = ptrtoint ptr %40 to i64
  %43 = ptrtoint ptr %41 to i64
  %44 = sub i64 %42, %43
  %45 = icmp slt i64 %44, 1
  br i1 %45, label %46, label %47

46:                                               ; preds = %39
  store i32 -108, ptr %4, align 4
  store i32 1, ptr %16, align 4
  br label %183

47:                                               ; preds = %39
  %48 = load ptr, ptr %9, align 8, !tbaa !9
  %49 = getelementptr inbounds i8, ptr %48, i32 -1
  store ptr %49, ptr %9, align 8, !tbaa !9
  store i8 0, ptr %49, align 1, !tbaa !22
  %50 = load i64, ptr %11, align 8, !tbaa !15
  %51 = add i64 %50, 1
  store i64 %51, ptr %11, align 8, !tbaa !15
  br label %52

52:                                               ; preds = %47
  %53 = load ptr, ptr %6, align 8, !tbaa !9
  %54 = load i64, ptr %11, align 8, !tbaa !15
  %55 = call i32 @mbedtls_asn1_write_len(ptr noundef %9, ptr noundef %53, i64 noundef %54)
  store i32 %55, ptr %8, align 4, !tbaa !13
  %56 = icmp slt i32 %55, 0
  br i1 %56, label %57, label %59

57:                                               ; preds = %52
  %58 = load i32, ptr %8, align 4, !tbaa !13
  store i32 %58, ptr %4, align 4
  store i32 1, ptr %16, align 4
  br label %183

59:                                               ; preds = %52
  %60 = load i32, ptr %8, align 4, !tbaa !13
  %61 = sext i32 %60 to i64
  %62 = load i64, ptr %11, align 8, !tbaa !15
  %63 = add i64 %62, %61
  store i64 %63, ptr %11, align 8, !tbaa !15
  br label %64

64:                                               ; preds = %59
  br label %65

65:                                               ; preds = %64
  br label %66

66:                                               ; preds = %65
  br label %67

67:                                               ; preds = %66
  %68 = load ptr, ptr %6, align 8, !tbaa !9
  %69 = call i32 @mbedtls_asn1_write_tag(ptr noundef %9, ptr noundef %68, i8 noundef zeroext 3)
  store i32 %69, ptr %8, align 4, !tbaa !13
  %70 = icmp slt i32 %69, 0
  br i1 %70, label %71, label %73

71:                                               ; preds = %67
  %72 = load i32, ptr %8, align 4, !tbaa !13
  store i32 %72, ptr %4, align 4
  store i32 1, ptr %16, align 4
  br label %183

73:                                               ; preds = %67
  %74 = load i32, ptr %8, align 4, !tbaa !13
  %75 = sext i32 %74 to i64
  %76 = load i64, ptr %11, align 8, !tbaa !15
  %77 = add i64 %76, %75
  store i64 %77, ptr %11, align 8, !tbaa !15
  br label %78

78:                                               ; preds = %73
  br label %79

79:                                               ; preds = %78
  br label %80

80:                                               ; preds = %79
  %81 = load ptr, ptr %5, align 8, !tbaa !11
  %82 = call i32 @pk_get_type_ext(ptr noundef %81)
  store i32 %82, ptr %14, align 4, !tbaa !13
  %83 = load ptr, ptr %5, align 8, !tbaa !11
  %84 = call i32 @pk_get_type_ext(ptr noundef %83)
  %85 = icmp eq i32 %84, 2
  br i1 %85, label %86, label %122

86:                                               ; preds = %80
  call void @llvm.lifetime.start.p0(i64 4, ptr %17) #7
  %87 = load ptr, ptr %5, align 8, !tbaa !11
  %88 = call i32 @mbedtls_pk_get_ec_group_id(ptr noundef %87)
  store i32 %88, ptr %17, align 4, !tbaa !13
  %89 = load i32, ptr %17, align 4, !tbaa !13
  %90 = icmp eq i32 %89, 9
  br i1 %90, label %94, label %91

91:                                               ; preds = %86
  %92 = load i32, ptr %17, align 4, !tbaa !13
  %93 = icmp eq i32 %92, 13
  br i1 %93, label %94, label %102

94:                                               ; preds = %91, %86
  %95 = load i32, ptr %17, align 4, !tbaa !13
  %96 = call i32 @mbedtls_oid_get_oid_by_ec_grp_algid(i32 noundef %95, ptr noundef %15, ptr noundef %13)
  store i32 %96, ptr %8, align 4, !tbaa !13
  %97 = load i32, ptr %8, align 4, !tbaa !13
  %98 = icmp ne i32 %97, 0
  br i1 %98, label %99, label %101

99:                                               ; preds = %94
  %100 = load i32, ptr %8, align 4, !tbaa !13
  store i32 %100, ptr %4, align 4
  store i32 1, ptr %16, align 4
  br label %119

101:                                              ; preds = %94
  store i32 0, ptr %10, align 4, !tbaa !13
  br label %118

102:                                              ; preds = %91
  br label %103

103:                                              ; preds = %102
  %104 = load ptr, ptr %6, align 8, !tbaa !9
  %105 = load i32, ptr %17, align 4, !tbaa !13
  %106 = call i32 @pk_write_ec_param(ptr noundef %9, ptr noundef %104, i32 noundef %105)
  store i32 %106, ptr %8, align 4, !tbaa !13
  %107 = icmp slt i32 %106, 0
  br i1 %107, label %108, label %110

108:                                              ; preds = %103
  %109 = load i32, ptr %8, align 4, !tbaa !13
  store i32 %109, ptr %4, align 4
  store i32 1, ptr %16, align 4
  br label %119

110:                                              ; preds = %103
  %111 = load i32, ptr %8, align 4, !tbaa !13
  %112 = sext i32 %111 to i64
  %113 = load i64, ptr %12, align 8, !tbaa !15
  %114 = add i64 %113, %112
  store i64 %114, ptr %12, align 8, !tbaa !15
  br label %115

115:                                              ; preds = %110
  br label %116

116:                                              ; preds = %115
  br label %117

117:                                              ; preds = %116
  br label %118

118:                                              ; preds = %117, %101
  store i32 0, ptr %16, align 4
  br label %119

119:                                              ; preds = %118, %108, %99
  call void @llvm.lifetime.end.p0(i64 4, ptr %17) #7
  %120 = load i32, ptr %16, align 4
  switch i32 %120, label %183 [
    i32 0, label %121
  ]

121:                                              ; preds = %119
  br label %122

122:                                              ; preds = %121, %80
  %123 = load i64, ptr %13, align 8, !tbaa !15
  %124 = icmp eq i64 %123, 0
  br i1 %124, label %125, label %133

125:                                              ; preds = %122
  %126 = load i32, ptr %14, align 4, !tbaa !13
  %127 = call i32 @mbedtls_oid_get_oid_by_pk_alg(i32 noundef %126, ptr noundef %15, ptr noundef %13)
  store i32 %127, ptr %8, align 4, !tbaa !13
  %128 = load i32, ptr %8, align 4, !tbaa !13
  %129 = icmp ne i32 %128, 0
  br i1 %129, label %130, label %132

130:                                              ; preds = %125
  %131 = load i32, ptr %8, align 4, !tbaa !13
  store i32 %131, ptr %4, align 4
  store i32 1, ptr %16, align 4
  br label %183

132:                                              ; preds = %125
  br label %133

133:                                              ; preds = %132, %122
  br label %134

134:                                              ; preds = %133
  %135 = load ptr, ptr %6, align 8, !tbaa !9
  %136 = load ptr, ptr %15, align 8, !tbaa !9
  %137 = load i64, ptr %13, align 8, !tbaa !15
  %138 = load i64, ptr %12, align 8, !tbaa !15
  %139 = load i32, ptr %10, align 4, !tbaa !13
  %140 = call i32 @mbedtls_asn1_write_algorithm_identifier_ext(ptr noundef %9, ptr noundef %135, ptr noundef %136, i64 noundef %137, i64 noundef %138, i32 noundef %139)
  store i32 %140, ptr %8, align 4, !tbaa !13
  %141 = icmp slt i32 %140, 0
  br i1 %141, label %142, label %144

142:                                              ; preds = %134
  %143 = load i32, ptr %8, align 4, !tbaa !13
  store i32 %143, ptr %4, align 4
  store i32 1, ptr %16, align 4
  br label %183

144:                                              ; preds = %134
  %145 = load i32, ptr %8, align 4, !tbaa !13
  %146 = sext i32 %145 to i64
  %147 = load i64, ptr %11, align 8, !tbaa !15
  %148 = add i64 %147, %146
  store i64 %148, ptr %11, align 8, !tbaa !15
  br label %149

149:                                              ; preds = %144
  br label %150

150:                                              ; preds = %149
  br label %151

151:                                              ; preds = %150
  br label %152

152:                                              ; preds = %151
  %153 = load ptr, ptr %6, align 8, !tbaa !9
  %154 = load i64, ptr %11, align 8, !tbaa !15
  %155 = call i32 @mbedtls_asn1_write_len(ptr noundef %9, ptr noundef %153, i64 noundef %154)
  store i32 %155, ptr %8, align 4, !tbaa !13
  %156 = icmp slt i32 %155, 0
  br i1 %156, label %157, label %159

157:                                              ; preds = %152
  %158 = load i32, ptr %8, align 4, !tbaa !13
  store i32 %158, ptr %4, align 4
  store i32 1, ptr %16, align 4
  br label %183

159:                                              ; preds = %152
  %160 = load i32, ptr %8, align 4, !tbaa !13
  %161 = sext i32 %160 to i64
  %162 = load i64, ptr %11, align 8, !tbaa !15
  %163 = add i64 %162, %161
  store i64 %163, ptr %11, align 8, !tbaa !15
  br label %164

164:                                              ; preds = %159
  br label %165

165:                                              ; preds = %164
  br label %166

166:                                              ; preds = %165
  br label %167

167:                                              ; preds = %166
  %168 = load ptr, ptr %6, align 8, !tbaa !9
  %169 = call i32 @mbedtls_asn1_write_tag(ptr noundef %9, ptr noundef %168, i8 noundef zeroext 48)
  store i32 %169, ptr %8, align 4, !tbaa !13
  %170 = icmp slt i32 %169, 0
  br i1 %170, label %171, label %173

171:                                              ; preds = %167
  %172 = load i32, ptr %8, align 4, !tbaa !13
  store i32 %172, ptr %4, align 4
  store i32 1, ptr %16, align 4
  br label %183

173:                                              ; preds = %167
  %174 = load i32, ptr %8, align 4, !tbaa !13
  %175 = sext i32 %174 to i64
  %176 = load i64, ptr %11, align 8, !tbaa !15
  %177 = add i64 %176, %175
  store i64 %177, ptr %11, align 8, !tbaa !15
  br label %178

178:                                              ; preds = %173
  br label %179

179:                                              ; preds = %178
  br label %180

180:                                              ; preds = %179
  %181 = load i64, ptr %11, align 8, !tbaa !15
  %182 = trunc i64 %181 to i32
  store i32 %182, ptr %4, align 4
  store i32 1, ptr %16, align 4
  br label %183

183:                                              ; preds = %180, %171, %157, %142, %130, %119, %71, %57, %46, %30, %20
  call void @llvm.lifetime.end.p0(i64 8, ptr %15) #7
  call void @llvm.lifetime.end.p0(i64 4, ptr %14) #7
  call void @llvm.lifetime.end.p0(i64 8, ptr %13) #7
  call void @llvm.lifetime.end.p0(i64 8, ptr %12) #7
  call void @llvm.lifetime.end.p0(i64 8, ptr %11) #7
  call void @llvm.lifetime.end.p0(i64 4, ptr %10) #7
  call void @llvm.lifetime.end.p0(i64 8, ptr %9) #7
  call void @llvm.lifetime.end.p0(i64 4, ptr %8) #7
  %184 = load i32, ptr %4, align 4
  ret i32 %184
}