; Function Attrs: nounwind uwtable
define hidden i32 @mbedtls_pk_write_pubkey_der(ptr noundef %0, ptr noundef %1, i64 noundef %2) local_unnamed_addr #0 {
  %4 = alloca ptr, align 8
  %5 = alloca i64, align 8
  %6 = alloca %struct.mbedtls_pk_context, align 8
  %7 = alloca ptr, align 8
  %8 = alloca i64, align 8
  %9 = alloca ptr, align 8
  call void @llvm.lifetime.start.p0(i64 8, ptr nonnull %7) #6
  call void @llvm.lifetime.start.p0(i64 8, ptr nonnull %8) #6
  store i64 0, ptr %8, align 8, !tbaa !3
  call void @llvm.lifetime.start.p0(i64 8, ptr nonnull %9) #6
  store ptr null, ptr %9, align 8, !tbaa !7
  %10 = icmp eq i64 %2, 0
  br i1 %10, label %76, label %11

11:                                               ; preds = %3
  %12 = getelementptr inbounds nuw i8, ptr %1, i64 %2
  store ptr %12, ptr %7, align 8, !tbaa !7
  %13 = call i32 @mbedtls_pk_write_pubkey(ptr noundef nonnull %7, ptr noundef %1, ptr noundef %0)
  %14 = icmp slt i32 %13, 0
  br i1 %14, label %76, label %15

15:                                               ; preds = %11
  %16 = load ptr, ptr %7, align 8, !tbaa !7
  %17 = ptrtoint ptr %16 to i64
  %18 = ptrtoint ptr %1 to i64
  %19 = sub i64 %17, %18
  %20 = icmp slt i64 %19, 1
  br i1 %20, label %76, label %21

21:                                               ; preds = %15
  %22 = getelementptr inbounds i8, ptr %16, i64 -1
  store ptr %22, ptr %7, align 8, !tbaa !7
  store i8 0, ptr %22, align 1, !tbaa !10
  %narrow = add nuw i32 %13, 1
  %23 = zext i32 %narrow to i64
  %24 = call i32 @mbedtls_asn1_write_len(ptr noundef nonnull %7, ptr noundef %1, i64 noundef %23) #6
  %25 = icmp slt i32 %24, 0
  br i1 %25, label %76, label %26

26:                                               ; preds = %21
  %27 = call i32 @mbedtls_asn1_write_tag(ptr noundef nonnull %7, ptr noundef %1, i8 noundef zeroext 3) #6
  %28 = icmp slt i32 %27, 0
  br i1 %28, label %76, label %29

29:                                               ; preds = %26
  %30 = zext nneg i32 %24 to i64
  %31 = add nuw nsw i64 %30, %23
  %32 = zext nneg i32 %27 to i64
  %33 = add nuw nsw i64 %31, %32
  %34 = call i32 @mbedtls_pk_get_type(ptr noundef %0) #6
  %35 = call i32 @mbedtls_pk_get_type(ptr noundef %0) #6
  %36 = icmp eq i32 %35, 2
  br i1 %36, label %37, label %.thread

37:                                               ; preds = %29
  %.val = load ptr, ptr %0, align 8
  %38 = getelementptr i8, ptr %0, i64 8
  %.val78 = load ptr, ptr %38, align 8
  call void @llvm.lifetime.start.p0(i64 16, ptr nonnull %6)
  store ptr %.val, ptr %6, align 8
  %39 = getelementptr inbounds nuw i8, ptr %6, i64 8
  store ptr %.val78, ptr %39, align 8
  %40 = call i32 @mbedtls_pk_get_type(ptr noundef nonnull %6) #6
  %41 = load ptr, ptr %39, align 8
  call void @llvm.lifetime.end.p0(i64 16, ptr nonnull %6)
  %42 = load i32, ptr %41, align 8, !tbaa !11
  %43 = and i32 %42, -5
  %or.cond = icmp eq i32 %43, 9
  br i1 %or.cond, label %44, label %46

44:                                               ; preds = %37
  %45 = call i32 @mbedtls_oid_get_oid_by_ec_grp_algid(i32 noundef %42, ptr noundef nonnull %9, ptr noundef nonnull %8) #6
  %.not = icmp eq i32 %45, 0
  br i1 %.not, label %.thread, label %76

46:                                               ; preds = %37
  call void @llvm.lifetime.start.p0(i64 8, ptr nonnull %4) #6
  call void @llvm.lifetime.start.p0(i64 8, ptr nonnull %5) #6
  %47 = call i32 @mbedtls_oid_get_oid_by_ec_grp(i32 noundef %42, ptr noundef nonnull %4, ptr noundef nonnull %5) #6
  %.not.i = icmp eq i32 %47, 0
  br i1 %.not.i, label %48, label %pk_write_ec_param.exit

48:                                               ; preds = %46
  %49 = load ptr, ptr %4, align 8, !tbaa !7
  %50 = load i64, ptr %5, align 8, !tbaa !3
  %51 = call i32 @mbedtls_asn1_write_oid(ptr noundef nonnull %7, ptr noundef %1, ptr noundef %49, i64 noundef %50) #6
  br label %pk_write_ec_param.exit

pk_write_ec_param.exit:                           ; preds = %46, %48
  %.0.i = phi i32 [ %47, %46 ], [ %51, %48 ]
  call void @llvm.lifetime.end.p0(i64 8, ptr nonnull %5) #6
  call void @llvm.lifetime.end.p0(i64 8, ptr nonnull %4) #6
  %52 = icmp slt i32 %.0.i, 0
  br i1 %52, label %76, label %53

53:                                               ; preds = %pk_write_ec_param.exit
  %54 = zext nneg i32 %.0.i to i64
  br label %.thread

.thread:                                          ; preds = %44, %53, %29
  %.056 = phi i32 [ 1, %29 ], [ 1, %53 ], [ 0, %44 ]
  %.054 = phi i64 [ 0, %29 ], [ %54, %53 ], [ 0, %44 ]
  %55 = load i64, ptr %8, align 8, !tbaa !3
  %56 = icmp eq i64 %55, 0
  br i1 %56, label %57, label %59

57:                                               ; preds = %.thread
  %58 = call i32 @mbedtls_oid_get_oid_by_pk_alg(i32 noundef %34, ptr noundef nonnull %9, ptr noundef nonnull %8) #6
  %.not77 = icmp eq i32 %58, 0
  br i1 %.not77, label %._crit_edge, label %76

._crit_edge:                                      ; preds = %57
  %.pre = load i64, ptr %8, align 8, !tbaa !3
  br label %59

59:                                               ; preds = %._crit_edge, %.thread
  %60 = phi i64 [ %.pre, %._crit_edge ], [ %55, %.thread ]
  %61 = load ptr, ptr %9, align 8, !tbaa !7
  %62 = call i32 @mbedtls_asn1_write_algorithm_identifier_ext(ptr noundef nonnull %7, ptr noundef %1, ptr noundef %61, i64 noundef %60, i64 noundef %.054, i32 noundef %.056) #6
  %63 = icmp slt i32 %62, 0
  br i1 %63, label %76, label %64

64:                                               ; preds = %59
  %65 = zext nneg i32 %62 to i64
  %66 = add nuw nsw i64 %33, %65
  %67 = call i32 @mbedtls_asn1_write_len(ptr noundef nonnull %7, ptr noundef %1, i64 noundef %66) #6
  %68 = icmp slt i32 %67, 0
  br i1 %68, label %76, label %69

69:                                               ; preds = %64
  %70 = call i32 @mbedtls_asn1_write_tag(ptr noundef nonnull %7, ptr noundef %1, i8 noundef zeroext 48) #6
  %71 = icmp slt i32 %70, 0
  br i1 %71, label %76, label %72

72:                                               ; preds = %69
  %73 = trunc i64 %66 to i32
  %74 = add i32 %67, %73
  %75 = add i32 %74, %70
  br label %76

76:                                               ; preds = %44, %pk_write_ec_param.exit, %69, %64, %59, %57, %26, %21, %15, %11, %3, %72
  %.0 = phi i32 [ %75, %72 ], [ -108, %3 ], [ %13, %11 ], [ -108, %15 ], [ %24, %21 ], [ %27, %26 ], [ %58, %57 ], [ %62, %59 ], [ %67, %64 ], [ %70, %69 ], [ %45, %44 ], [ %.0.i, %pk_write_ec_param.exit ]
  call void @llvm.lifetime.end.p0(i64 8, ptr nonnull %9) #6
  call void @llvm.lifetime.end.p0(i64 8, ptr nonnull %8) #6
  call void @llvm.lifetime.end.p0(i64 8, ptr nonnull %7) #6
  ret i32 %.0
}